target datalayout = "e-m:e-p270:32:32-p271:32:32-p272:64:64-i64:64-i128:128-f80:128-n8:16:32:64-S128"
target triple = "x86_64-pc-linux-gnu"

%struct.Indeo3DecodeContext = type { ptr, %struct.HpelDSPContext, %struct.GetBitContext, i32, i32, ptr, ptr, ptr, i32, i16, i16, i32, i32, i16, i8, i8, ptr, ptr, ptr, i32, i32, i32, ptr, [3 x %struct.Plane] }
%struct.HpelDSPContext = type { [4 x [4 x ptr]], [4 x [4 x ptr]], [4 x [4 x ptr]], [4 x ptr] }
%struct.GetBitContext = type { ptr, ptr, i32, i32, i32 }
%struct.Plane = type { [2 x ptr], [2 x ptr], i32, i32, i64 }
%struct.Cell = type { i16, i16, i16, i16, i8, ptr }

@.str.12 = private unnamed_addr constant [42 x i8] c"Read invalid number of motion vectors %d\0A\00", align 1

; Function Attrs: inlinehint nounwind uwtable
define internal i32 @init_get_bits(ptr noundef %0, ptr noundef %1, i32 noundef %2) #7 {
  %4 = alloca ptr, align 8
  %5 = alloca ptr, align 8
  %6 = alloca i32, align 4
  %7 = alloca i32, align 4
  %8 = alloca i32, align 4
  store ptr %0, ptr %4, align 8, !tbaa !104
  store ptr %1, ptr %5, align 8, !tbaa !47
  store i32 %2, ptr %6, align 4, !tbaa !49
  call void @llvm.lifetime.start.p0(i64 4, ptr %7) #10
  call void @llvm.lifetime.start.p0(i64 4, ptr %8) #10
  store i32 0, ptr %8, align 4, !tbaa !49
  %9 = load i32, ptr %6, align 4, !tbaa !49
  %10 = icmp sge i32 %9, 2147483135
  br i1 %10, label %17, label %11

11:                                               ; preds = %3
  %12 = load i32, ptr %6, align 4, !tbaa !49
  %13 = icmp slt i32 %12, 0
  br i1 %13, label %17, label %14

14:                                               ; preds = %11
  %15 = load ptr, ptr %5, align 8, !tbaa !47
  %16 = icmp ne ptr %15, null
  br i1 %16, label %18, label %17

17:                                               ; preds = %14, %11, %3
  store i32 0, ptr %6, align 4, !tbaa !49
  store ptr null, ptr %5, align 8, !tbaa !47
  store i32 -1094995529, ptr %8, align 4, !tbaa !49
  br label %18

18:                                               ; preds = %17, %14
  %19 = load i32, ptr %6, align 4, !tbaa !49
  %20 = add nsw i32 %19, 7
  %21 = ashr i32 %20, 3
  store i32 %21, ptr %7, align 4, !tbaa !49
  %22 = load ptr, ptr %5, align 8, !tbaa !47
  %23 = load ptr, ptr %4, align 8, !tbaa !104
  %24 = getelementptr inbounds nuw %struct.GetBitContext, ptr %23, i32 0, i32 0
  store ptr %22, ptr %24, align 8, !tbaa !106
  %25 = load i32, ptr %6, align 4, !tbaa !49
  %26 = load ptr, ptr %4, align 8, !tbaa !104
  %27 = getelementptr inbounds nuw %struct.GetBitContext, ptr %26, i32 0, i32 3
  store i32 %25, ptr %27, align 4, !tbaa !107
  %28 = load i32, ptr %6, align 4, !tbaa !49
  %29 = add nsw i32 %28, 8
  %30 = load ptr, ptr %4, align 8, !tbaa !104
  %31 = getelementptr inbounds nuw %struct.GetBitContext, ptr %30, i32 0, i32 4
  store i32 %29, ptr %31, align 8, !tbaa !108
  %32 = load ptr, ptr %5, align 8, !tbaa !47
  %33 = load i32, ptr %7, align 4, !tbaa !49
  %34 = sext i32 %33 to i64
  %35 = getelementptr inbounds i8, ptr %32, i64 %34
  %36 = load ptr, ptr %4, align 8, !tbaa !104
  %37 = getelementptr inbounds nuw %struct.GetBitContext, ptr %36, i32 0, i32 1
  store ptr %35, ptr %37, align 8, !tbaa !109
  %38 = load ptr, ptr %4, align 8, !tbaa !104
  %39 = getelementptr inbounds nuw %struct.GetBitContext, ptr %38, i32 0, i32 2
  store i32 0, ptr %39, align 8, !tbaa !110
  %40 = load i32, ptr %8, align 4, !tbaa !49
  call void @llvm.lifetime.end.p0(i64 4, ptr %8) #10
  call void @llvm.lifetime.end.p0(i64 4, ptr %7) #10
  ret i32 %40
}

; Function Attrs: alwaysinline nounwind uwtable
define internal i32 @bytestream_get_le32(ptr noundef %0) #5 {
  %2 = alloca ptr, align 8
  store ptr %0, ptr %2, align 8, !tbaa !102
  %3 = load ptr, ptr %2, align 8, !tbaa !102
  %4 = load ptr, ptr %3, align 8, !tbaa !47
  %5 = getelementptr inbounds i8, ptr %4, i64 4
  store ptr %5, ptr %3, align 8, !tbaa !47
  %6 = load ptr, ptr %2, align 8, !tbaa !102
  %7 = load ptr, ptr %6, align 8, !tbaa !47
  %8 = getelementptr inbounds i8, ptr %7, i64 -4
  %9 = load i32, ptr %8, align 1, !tbaa !59
  ret i32 %9
}

; Function Attrs: nounwind uwtable
define internal i32 @decode_plane(ptr noundef %0, ptr noundef %1, ptr noundef %2, ptr noundef %3, i32 noundef %4, i32 noundef %5) #1 {
  %7 = alloca i32, align 4
  %8 = alloca ptr, align 8
  %9 = alloca ptr, align 8
  %10 = alloca ptr, align 8
  %11 = alloca ptr, align 8
  %12 = alloca i32, align 4
  %13 = alloca i32, align 4
  %14 = alloca %struct.Cell, align 8
  %15 = alloca i32, align 4
  %16 = alloca i32, align 4
  store ptr %0, ptr %8, align 8, !tbaa !29
  store ptr %1, ptr %9, align 8, !tbaa !4
  store ptr %2, ptr %10, align 8, !tbaa !80
  store ptr %3, ptr %11, align 8, !tbaa !47
  store i32 %4, ptr %12, align 4, !tbaa !49
  store i32 %5, ptr %13, align 4, !tbaa !49
  call void @llvm.lifetime.start.p0(i64 24, ptr %14) #10
  call void @llvm.lifetime.start.p0(i64 4, ptr %15) #10
  %17 = call i32 @bytestream_get_le32(ptr noundef %11)
  store i32 %17, ptr %15, align 4, !tbaa !49
  %18 = load i32, ptr %12, align 4, !tbaa !49
  %19 = sub nsw i32 %18, 4
  store i32 %19, ptr %12, align 4, !tbaa !49
  %20 = load i32, ptr %15, align 4, !tbaa !49
  %21 = icmp ugt i32 %20, 256
  br i1 %21, label %22, label %27

22:                                               ; preds = %6
  %23 = load ptr, ptr %8, align 8, !tbaa !29
  %24 = getelementptr inbounds nuw %struct.Indeo3DecodeContext, ptr %23, i32 0, i32 0
  %25 = load ptr, ptr %24, align 8, !tbaa !31
  %26 = load i32, ptr %15, align 4, !tbaa !49
  call void (ptr, i32, ptr, ...) @av_log(ptr noundef %25, i32 noundef 16, ptr noundef @.str.12, i32 noundef %26)
  store i32 -1094995529, ptr %7, align 4
  store i32 1, ptr %16, align 4
  br label %90

27:                                               ; preds = %6
  %28 = load i32, ptr %15, align 4, !tbaa !49
  %29 = mul i32 %28, 2
  %30 = load i32, ptr %12, align 4, !tbaa !49
  %31 = icmp ugt i32 %29, %30
  br i1 %31, label %32, label %33

32:                                               ; preds = %27
  store i32 -1094995529, ptr %7, align 4
  store i32 1, ptr %16, align 4
  br label %90

33:                                               ; preds = %27
  %34 = load i32, ptr %15, align 4, !tbaa !49
  %35 = load ptr, ptr %8, align 8, !tbaa !29
  %36 = getelementptr inbounds nuw %struct.Indeo3DecodeContext, ptr %35, i32 0, i32 8
  store i32 %34, ptr %36, align 8, !tbaa !82
  %37 = load i32, ptr %15, align 4, !tbaa !49
  %38 = icmp ne i32 %37, 0
  br i1 %38, label %39, label %41

39:                                               ; preds = %33
  %40 = load ptr, ptr %11, align 8, !tbaa !47
  br label %42

41:                                               ; preds = %33
  br label %42

42:                                               ; preds = %41, %39
  %43 = phi ptr [ %40, %39 ], [ null, %41 ]
  %44 = load ptr, ptr %8, align 8, !tbaa !29
  %45 = getelementptr inbounds nuw %struct.Indeo3DecodeContext, ptr %44, i32 0, i32 7
  store ptr %43, ptr %45, align 8, !tbaa !83
  %46 = load ptr, ptr %8, align 8, !tbaa !29
  %47 = getelementptr inbounds nuw %struct.Indeo3DecodeContext, ptr %46, i32 0, i32 2
  %48 = load ptr, ptr %11, align 8, !tbaa !47
  %49 = load i32, ptr %15, align 4, !tbaa !49
  %50 = mul i32 %49, 2
  %51 = zext i32 %50 to i64
  %52 = getelementptr inbounds nuw i8, ptr %48, i64 %51
  %53 = load i32, ptr %12, align 4, !tbaa !49
  %54 = load i32, ptr %15, align 4, !tbaa !49
  %55 = mul i32 %54, 2
  %56 = sub i32 %53, %55
  %57 = shl i32 %56, 3
  %58 = call i32 @init_get_bits(ptr noundef %47, ptr noundef %52, i32 noundef %57)
  %59 = load ptr, ptr %8, align 8, !tbaa !29
  %60 = getelementptr inbounds nuw %struct.Indeo3DecodeContext, ptr %59, i32 0, i32 4
  store i32 0, ptr %60, align 4, !tbaa !84
  %61 = load ptr, ptr %8, align 8, !tbaa !29
  %62 = getelementptr inbounds nuw %struct.Indeo3DecodeContext, ptr %61, i32 0, i32 3
  store i32 0, ptr %62, align 8, !tbaa !85
  %63 = load ptr, ptr %11, align 8, !tbaa !47
  %64 = load i32, ptr %12, align 4, !tbaa !49
  %65 = sext i32 %64 to i64
  %66 = getelementptr inbounds i8, ptr %63, i64 %65
  %67 = load ptr, ptr %8, align 8, !tbaa !29
  %68 = getelementptr inbounds nuw %struct.Indeo3DecodeContext, ptr %67, i32 0, i32 6
  store ptr %66, ptr %68, align 8, !tbaa !86
  %69 = getelementptr inbounds nuw %struct.Cell, ptr %14, i32 0, i32 1
  store i16 0, ptr %69, align 2, !tbaa !87
  %70 = getelementptr inbounds nuw %struct.Cell, ptr %14, i32 0, i32 0
  store i16 0, ptr %70, align 8, !tbaa !89
  %71 = load ptr, ptr %10, align 8, !tbaa !80
  %72 = getelementptr inbounds nuw %struct.Plane, ptr %71, i32 0, i32 2
  %73 = load i32, ptr %72, align 8, !tbaa !68
  %74 = lshr i32 %73, 2
  %75 = trunc i32 %74 to i16
  %76 = getelementptr inbounds nuw %struct.Cell, ptr %14, i32 0, i32 2
  store i16 %75, ptr %76, align 4, !tbaa !90
  %77 = load ptr, ptr %10, align 8, !tbaa !80
  %78 = getelementptr inbounds nuw %struct.Plane, ptr %77, i32 0, i32 3
  %79 = load i32, ptr %78, align 4, !tbaa !69
  %80 = lshr i32 %79, 2
  %81 = trunc i32 %80 to i16
  %82 = getelementptr inbounds nuw %struct.Cell, ptr %14, i32 0, i32 3
  store i16 %81, ptr %82, align 2, !tbaa !91
  %83 = getelementptr inbounds nuw %struct.Cell, ptr %14, i32 0, i32 4
  store i8 0, ptr %83, align 8, !tbaa !92
  %84 = getelementptr inbounds nuw %struct.Cell, ptr %14, i32 0, i32 5
  store ptr null, ptr %84, align 8, !tbaa !93
  %85 = load ptr, ptr %8, align 8, !tbaa !29
  %86 = load ptr, ptr %9, align 8, !tbaa !4
  %87 = load ptr, ptr %10, align 8, !tbaa !80
  %88 = load i32, ptr %13, align 4, !tbaa !49
  %89 = call i32 @parse_bintree(ptr noundef %85, ptr noundef %86, ptr noundef %87, i32 noundef 2, ptr noundef %14, i32 noundef 20, i32 noundef %88)
  store i32 %89, ptr %7, align 4
  store i32 1, ptr %16, align 4
  br label %90

90:                                               ; preds = %42, %32, %22
  call void @llvm.lifetime.end.p0(i64 4, ptr %15) #10
  call void @llvm.lifetime.end.p0(i64 24, ptr %14) #10
  %91 = load i32, ptr %7, align 4
  ret i32 %91
}