; Function Attrs: nounwind uwtable
define internal fastcc range(i32 -1094995529, 1) i32 @decode_plane(ptr noundef captures(none) %0, ptr noundef %1, ptr noundef readonly captures(none) %2, ptr noundef %3, i32 noundef %4, i32 noundef range(i32 10, 41) %5) unnamed_addr #1 {
  %7 = alloca %struct.Cell, align 8
  call void @llvm.lifetime.start.p0(i64 24, ptr nonnull %7) #10
  %8 = getelementptr inbounds nuw i8, ptr %3, i64 4
  %9 = load i32, ptr %3, align 1, !tbaa !40
  %10 = add nsw i32 %4, -4
  %11 = icmp ugt i32 %9, 256
  br i1 %11, label %12, label %14

12:                                               ; preds = %6
  %13 = load ptr, ptr %0, align 8, !tbaa !27
  tail call void (ptr, i32, ptr, ...) @av_log(ptr noundef %13, i32 noundef 16, ptr noundef nonnull @.str.12, i32 noundef %9) #10
  br label %53

14:                                               ; preds = %6
  %15 = shl nuw nsw i32 %9, 1
  %16 = icmp ugt i32 %15, %10
  br i1 %16, label %53, label %17

17:                                               ; preds = %14
  %18 = getelementptr inbounds nuw i8, ptr %0, i64 488
  store i32 %9, ptr %18, align 8, !tbaa !68
  %.not = icmp eq i32 %9, 0
  %19 = select i1 %.not, ptr null, ptr %8
  %20 = getelementptr inbounds nuw i8, ptr %0, i64 480
  store ptr %19, ptr %20, align 8, !tbaa !69
  %21 = getelementptr inbounds nuw i8, ptr %0, i64 424
  %22 = zext nneg i32 %15 to i64
  %23 = getelementptr inbounds nuw i8, ptr %8, i64 %22
  %24 = sub nuw i32 %10, %15
  %25 = shl i32 %24, 3
  %or.cond.i = icmp ult i32 %25, 2147483135
  %.018.i = select i1 %or.cond.i, i32 %25, i32 0
  %.017.i = select i1 %or.cond.i, ptr %23, ptr null
  %26 = lshr exact i32 %.018.i, 3
  store ptr %.017.i, ptr %21, align 8, !tbaa !70
  %27 = getelementptr inbounds nuw i8, ptr %0, i64 444
  store i32 %.018.i, ptr %27, align 4, !tbaa !71
  %28 = add nuw nsw i32 %.018.i, 8
  %29 = getelementptr inbounds nuw i8, ptr %0, i64 448
  store i32 %28, ptr %29, align 8, !tbaa !72
  %30 = zext nneg i32 %26 to i64
  %31 = getelementptr inbounds nuw i8, ptr %.017.i, i64 %30
  %32 = getelementptr inbounds nuw i8, ptr %0, i64 432
  store ptr %31, ptr %32, align 8, !tbaa !73
  %33 = getelementptr inbounds nuw i8, ptr %0, i64 440
  store i32 0, ptr %33, align 8, !tbaa !74
  %34 = getelementptr inbounds nuw i8, ptr %0, i64 460
  store i32 0, ptr %34, align 4, !tbaa !75
  %35 = getelementptr inbounds nuw i8, ptr %0, i64 456
  store i32 0, ptr %35, align 8, !tbaa !76
  %36 = sext i32 %10 to i64
  %37 = getelementptr inbounds i8, ptr %8, i64 %36
  %38 = getelementptr inbounds nuw i8, ptr %0, i64 472
  store ptr %37, ptr %38, align 8, !tbaa !77
  %39 = getelementptr inbounds nuw i8, ptr %7, i64 2
  store i16 0, ptr %39, align 2, !tbaa !78
  store i16 0, ptr %7, align 8, !tbaa !80
  %40 = getelementptr inbounds nuw i8, ptr %2, i64 32
  %41 = load i32, ptr %40, align 8, !tbaa !65
  %42 = lshr i32 %41, 2
  %43 = trunc i32 %42 to i16
  %44 = getelementptr inbounds nuw i8, ptr %7, i64 4
  store i16 %43, ptr %44, align 4, !tbaa !81
  %45 = getelementptr inbounds nuw i8, ptr %2, i64 36
  %46 = load i32, ptr %45, align 4, !tbaa !66
  %47 = lshr i32 %46, 2
  %48 = trunc i32 %47 to i16
  %49 = getelementptr inbounds nuw i8, ptr %7, i64 6
  store i16 %48, ptr %49, align 2, !tbaa !82
  %50 = getelementptr inbounds nuw i8, ptr %7, i64 8
  store i8 0, ptr %50, align 8, !tbaa !83
  %51 = getelementptr inbounds nuw i8, ptr %7, i64 16
  store ptr null, ptr %51, align 8, !tbaa !84
  %52 = call fastcc i32 @parse_bintree(ptr noundef %0, ptr noundef %1, ptr noundef %2, i32 noundef 2, ptr noundef %7, i32 noundef 20, i32 noundef %5)
  br label %53

53:                                               ; preds = %14, %17, %12
  %.0 = phi i32 [ -1094995529, %12 ], [ %52, %17 ], [ -1094995529, %14 ]
  call void @llvm.lifetime.end.p0(i64 24, ptr nonnull %7) #10
  ret i32 %.0
}